target datalayout = "e-m:e-p270:32:32-p271:32:32-p272:64:64-i64:64-i128:128-f80:128-n8:16:32:64-S128"
target triple = "x86_64-pc-linux-gnu"

%struct.Npn_Man_t_ = type { ptr, ptr, i32, i32, i32 }
%struct.Npn_Obj_t_ = type { i64, i32, i32 }
%struct.Vec_Ptr_t_ = type { i32, i32, ptr }

@.str.2 = private unnamed_addr constant [37 x i8] c"Cannot open NPN function file \22%s\22.\0A\00", align 1
@.str.5 = private unnamed_addr constant [2 x i8] c"w\00", align 1
@.str.6 = private unnamed_addr constant [8 x i8] c" %d %d\0A\00", align 1
@Truth = internal global [8 x i64] [i64 -6148914691236517206, i64 -3689348814741910324, i64 -1085102592571150096, i64 -71777214294589696, i64 -281470681808896, i64 -4294967296, i64 0, i64 -1], align 16

; Function Attrs: nounwind uwtable
define internal i32 @Npn_TruthHasVar(i64 noundef %0, i32 noundef %1) #0 {
  %3 = alloca i64, align 8
  %4 = alloca i32, align 4
  store i64 %0, ptr %3, align 8
  store i32 %1, ptr %4, align 4
  %5 = load i64, ptr %3, align 8
  %6 = load i32, ptr %4, align 4
  %7 = sext i32 %6 to i64
  %8 = getelementptr inbounds [8 x i64], ptr @Truth, i64 0, i64 %7
  %9 = load i64, ptr %8, align 8
  %10 = and i64 %5, %9
  %11 = load i32, ptr %4, align 4
  %12 = shl i32 1, %11
  %13 = zext i32 %12 to i64
  %14 = lshr i64 %10, %13
  %15 = load i64, ptr %3, align 8
  %16 = load i32, ptr %4, align 4
  %17 = sext i32 %16 to i64
  %18 = getelementptr inbounds [8 x i64], ptr @Truth, i64 0, i64 %17
  %19 = load i64, ptr %18, align 8
  %20 = xor i64 %19, -1
  %21 = and i64 %15, %20
  %22 = icmp ne i64 %14, %21
  %23 = zext i1 %22 to i32
  ret i32 %23
}

; Function Attrs: nounwind uwtable
define internal void @Vec_PtrGrow(ptr noundef %0, i32 noundef %1) #0 {
  %3 = alloca ptr, align 8
  %4 = alloca i32, align 4
  store ptr %0, ptr %3, align 8
  store i32 %1, ptr %4, align 4
  %5 = load ptr, ptr %3, align 8
  %6 = getelementptr inbounds %struct.Vec_Ptr_t_, ptr %5, i32 0, i32 0
  %7 = load i32, ptr %6, align 8
  %8 = load i32, ptr %4, align 4
  %9 = icmp sge i32 %7, %8
  br i1 %9, label %10, label %11

10:                                               ; preds = %2
  br label %36

11:                                               ; preds = %2
  %12 = load ptr, ptr %3, align 8
  %13 = getelementptr inbounds %struct.Vec_Ptr_t_, ptr %12, i32 0, i32 2
  %14 = load ptr, ptr %13, align 8
  %15 = icmp ne ptr %14, null
  br i1 %15, label %16, label %24

16:                                               ; preds = %11
  %17 = load ptr, ptr %3, align 8
  %18 = getelementptr inbounds %struct.Vec_Ptr_t_, ptr %17, i32 0, i32 2
  %19 = load ptr, ptr %18, align 8
  %20 = load i32, ptr %4, align 4
  %21 = sext i32 %20 to i64
  %22 = mul i64 8, %21
  %23 = call ptr @realloc(ptr noundef %19, i64 noundef %22) #12
  br label %29

24:                                               ; preds = %11
  %25 = load i32, ptr %4, align 4
  %26 = sext i32 %25 to i64
  %27 = mul i64 8, %26
  %28 = call noalias ptr @malloc(i64 noundef %27) #10
  br label %29

29:                                               ; preds = %24, %16
  %30 = phi ptr [ %23, %16 ], [ %28, %24 ]
  %31 = load ptr, ptr %3, align 8
  %32 = getelementptr inbounds %struct.Vec_Ptr_t_, ptr %31, i32 0, i32 2
  store ptr %30, ptr %32, align 8
  %33 = load i32, ptr %4, align 4
  %34 = load ptr, ptr %3, align 8
  %35 = getelementptr inbounds %struct.Vec_Ptr_t_, ptr %34, i32 0, i32 0
  store i32 %33, ptr %35, align 8
  br label %36

36:                                               ; preds = %29, %10
  ret void
}

; Function Attrs: nounwind uwtable
define internal void @Vec_PtrFree(ptr noundef %0) #0 {
  %2 = alloca ptr, align 8
  store ptr %0, ptr %2, align 8
  %3 = load ptr, ptr %2, align 8
  %4 = getelementptr inbounds %struct.Vec_Ptr_t_, ptr %3, i32 0, i32 2
  %5 = load ptr, ptr %4, align 8
  %6 = icmp ne ptr %5, null
  br i1 %6, label %7, label %13

7:                                                ; preds = %1
  %8 = load ptr, ptr %2, align 8
  %9 = getelementptr inbounds %struct.Vec_Ptr_t_, ptr %8, i32 0, i32 2
  %10 = load ptr, ptr %9, align 8
  call void @free(ptr noundef %10) #8
  %11 = load ptr, ptr %2, align 8
  %12 = getelementptr inbounds %struct.Vec_Ptr_t_, ptr %11, i32 0, i32 2
  store ptr null, ptr %12, align 8
  br label %14

13:                                               ; preds = %1
  br label %14

14:                                               ; preds = %13, %7
  %15 = load ptr, ptr %2, align 8
  %16 = icmp ne ptr %15, null
  br i1 %16, label %17, label %19

17:                                               ; preds = %14
  %18 = load ptr, ptr %2, align 8
  call void @free(ptr noundef %18) #8
  store ptr null, ptr %2, align 8
  br label %20

19:                                               ; preds = %14
  br label %20

20:                                               ; preds = %19, %17
  ret void
}

; Function Attrs: nounwind uwtable
define internal i32 @Npn_TruthSuppSize(i64 noundef %0, i32 noundef %1) #0 {
  %3 = alloca i64, align 8
  %4 = alloca i32, align 4
  %5 = alloca i32, align 4
  %6 = alloca i32, align 4
  store i64 %0, ptr %3, align 8
  store i32 %1, ptr %4, align 4
  store i32 0, ptr %6, align 4
  store i32 0, ptr %5, align 4
  br label %7

7:                                                ; preds = %20, %2
  %8 = load i32, ptr %5, align 4
  %9 = load i32, ptr %4, align 4
  %10 = icmp slt i32 %8, %9
  br i1 %10, label %11, label %23

11:                                               ; preds = %7
  %12 = load i64, ptr %3, align 8
  %13 = load i32, ptr %5, align 4
  %14 = call i32 @Npn_TruthHasVar(i64 noundef %12, i32 noundef %13)
  %15 = icmp ne i32 %14, 0
  br i1 %15, label %16, label %19

16:                                               ; preds = %11
  %17 = load i32, ptr %6, align 4
  %18 = add nsw i32 %17, 1
  store i32 %18, ptr %6, align 4
  br label %19

19:                                               ; preds = %16, %11
  br label %20

20:                                               ; preds = %19
  %21 = load i32, ptr %5, align 4
  %22 = add nsw i32 %21, 1
  store i32 %22, ptr %5, align 4
  br label %7, !llvm.loop !15

23:                                               ; preds = %7
  %24 = load i32, ptr %6, align 4
  ret i32 %24
}

; Function Attrs: nounwind uwtable
define internal ptr @Vec_PtrEntry(ptr noundef %0, i32 noundef %1) #0 {
  %3 = alloca ptr, align 8
  %4 = alloca i32, align 4
  store ptr %0, ptr %3, align 8
  store i32 %1, ptr %4, align 4
  %5 = load ptr, ptr %3, align 8
  %6 = getelementptr inbounds %struct.Vec_Ptr_t_, ptr %5, i32 0, i32 2
  %7 = load ptr, ptr %6, align 8
  %8 = load i32, ptr %4, align 4
  %9 = sext i32 %8 to i64
  %10 = getelementptr inbounds ptr, ptr %7, i64 %9
  %11 = load ptr, ptr %10, align 8
  ret ptr %11
}

; Function Attrs: nounwind uwtable
define internal i32 @Vec_PtrSize(ptr noundef %0) #0 {
  %2 = alloca ptr, align 8
  store ptr %0, ptr %2, align 8
  %3 = load ptr, ptr %2, align 8
  %4 = getelementptr inbounds %struct.Vec_Ptr_t_, ptr %3, i32 0, i32 1
  %5 = load i32, ptr %4, align 4
  ret i32 %5
}

; Function Attrs: nounwind uwtable
define internal void @Vec_PtrSort(ptr noundef %0, ptr noundef %1) #0 {
  %3 = alloca ptr, align 8
  %4 = alloca ptr, align 8
  store ptr %0, ptr %3, align 8
  store ptr %1, ptr %4, align 8
  %5 = load ptr, ptr %3, align 8
  %6 = getelementptr inbounds %struct.Vec_Ptr_t_, ptr %5, i32 0, i32 1
  %7 = load i32, ptr %6, align 4
  %8 = icmp slt i32 %7, 2
  br i1 %8, label %9, label %10

9:                                                ; preds = %2
  br label %30

10:                                               ; preds = %2
  %11 = load ptr, ptr %4, align 8
  %12 = icmp eq ptr %11, null
  br i1 %12, label %13, label %21

13:                                               ; preds = %10
  %14 = load ptr, ptr %3, align 8
  %15 = getelementptr inbounds %struct.Vec_Ptr_t_, ptr %14, i32 0, i32 2
  %16 = load ptr, ptr %15, align 8
  %17 = load ptr, ptr %3, align 8
  %18 = getelementptr inbounds %struct.Vec_Ptr_t_, ptr %17, i32 0, i32 1
  %19 = load i32, ptr %18, align 4
  %20 = sext i32 %19 to i64
  call void @qsort(ptr noundef %16, i64 noundef %20, i64 noundef 8, ptr noundef @Vec_PtrSortComparePtr)
  br label %30

21:                                               ; preds = %10
  %22 = load ptr, ptr %3, align 8
  %23 = getelementptr inbounds %struct.Vec_Ptr_t_, ptr %22, i32 0, i32 2
  %24 = load ptr, ptr %23, align 8
  %25 = load ptr, ptr %3, align 8
  %26 = getelementptr inbounds %struct.Vec_Ptr_t_, ptr %25, i32 0, i32 1
  %27 = load i32, ptr %26, align 4
  %28 = sext i32 %27 to i64
  %29 = load ptr, ptr %4, align 8
  call void @qsort(ptr noundef %24, i64 noundef %28, i64 noundef 8, ptr noundef %29)
  br label %30

30:                                               ; preds = %21, %13, %9
  ret void
}

; Function Attrs: nounwind uwtable
define internal void @Vec_PtrPush(ptr noundef %0, ptr noundef %1) #0 {
  %3 = alloca ptr, align 8
  %4 = alloca ptr, align 8
  store ptr %0, ptr %3, align 8
  store ptr %1, ptr %4, align 8
  %5 = load ptr, ptr %3, align 8
  %6 = getelementptr inbounds %struct.Vec_Ptr_t_, ptr %5, i32 0, i32 1
  %7 = load i32, ptr %6, align 4
  %8 = load ptr, ptr %3, align 8
  %9 = getelementptr inbounds %struct.Vec_Ptr_t_, ptr %8, i32 0, i32 0
  %10 = load i32, ptr %9, align 8
  %11 = icmp eq i32 %7, %10
  br i1 %11, label %12, label %26

12:                                               ; preds = %2
  %13 = load ptr, ptr %3, align 8
  %14 = getelementptr inbounds %struct.Vec_Ptr_t_, ptr %13, i32 0, i32 0
  %15 = load i32, ptr %14, align 8
  %16 = icmp slt i32 %15, 16
  br i1 %16, label %17, label %19

17:                                               ; preds = %12
  %18 = load ptr, ptr %3, align 8
  call void @Vec_PtrGrow(ptr noundef %18, i32 noundef 16)
  br label %25

19:                                               ; preds = %12
  %20 = load ptr, ptr %3, align 8
  %21 = load ptr, ptr %3, align 8
  %22 = getelementptr inbounds %struct.Vec_Ptr_t_, ptr %21, i32 0, i32 0
  %23 = load i32, ptr %22, align 8
  %24 = mul nsw i32 2, %23
  call void @Vec_PtrGrow(ptr noundef %20, i32 noundef %24)
  br label %25

25:                                               ; preds = %19, %17
  br label %26

26:                                               ; preds = %25, %2
  %27 = load ptr, ptr %4, align 8
  %28 = load ptr, ptr %3, align 8
  %29 = getelementptr inbounds %struct.Vec_Ptr_t_, ptr %28, i32 0, i32 2
  %30 = load ptr, ptr %29, align 8
  %31 = load ptr, ptr %3, align 8
  %32 = getelementptr inbounds %struct.Vec_Ptr_t_, ptr %31, i32 0, i32 1
  %33 = load i32, ptr %32, align 4
  %34 = add nsw i32 %33, 1
  store i32 %34, ptr %32, align 4
  %35 = sext i32 %33 to i64
  %36 = getelementptr inbounds ptr, ptr %30, i64 %35
  store ptr %27, ptr %36, align 8
  ret void
}

; Function Attrs: nounwind uwtable
define internal ptr @Npn_ManObj(ptr noundef %0, i32 noundef %1) #0 {
  %3 = alloca ptr, align 8
  %4 = alloca i32, align 4
  store ptr %0, ptr %3, align 8
  store i32 %1, ptr %4, align 4
  %5 = load i32, ptr %4, align 4
  %6 = icmp ne i32 %5, 0
  br i1 %6, label %7, label %14

7:                                                ; preds = %2
  %8 = load ptr, ptr %3, align 8
  %9 = getelementptr inbounds %struct.Npn_Man_t_, ptr %8, i32 0, i32 0
  %10 = load ptr, ptr %9, align 8
  %11 = load i32, ptr %4, align 4
  %12 = sext i32 %11 to i64
  %13 = getelementptr inbounds %struct.Npn_Obj_t_, ptr %10, i64 %12
  br label %15

14:                                               ; preds = %2
  br label %15

15:                                               ; preds = %14, %7
  %16 = phi ptr [ %13, %7 ], [ null, %14 ]
  ret ptr %16
}

; Function Attrs: nounwind uwtable
define internal ptr @Vec_PtrAlloc(i32 noundef %0) #0 {
  %2 = alloca i32, align 4
  %3 = alloca ptr, align 8
  store i32 %0, ptr %2, align 4
  %4 = call noalias ptr @malloc(i64 noundef 16) #10
  store ptr %4, ptr %3, align 8
  %5 = load i32, ptr %2, align 4
  %6 = icmp sgt i32 %5, 0
  br i1 %6, label %7, label %11

7:                                                ; preds = %1
  %8 = load i32, ptr %2, align 4
  %9 = icmp slt i32 %8, 8
  br i1 %9, label %10, label %11

10:                                               ; preds = %7
  store i32 8, ptr %2, align 4
  br label %11

11:                                               ; preds = %10, %7, %1
  %12 = load ptr, ptr %3, align 8
  %13 = getelementptr inbounds %struct.Vec_Ptr_t_, ptr %12, i32 0, i32 1
  store i32 0, ptr %13, align 4
  %14 = load i32, ptr %2, align 4
  %15 = load ptr, ptr %3, align 8
  %16 = getelementptr inbounds %struct.Vec_Ptr_t_, ptr %15, i32 0, i32 0
  store i32 %14, ptr %16, align 8
  %17 = load ptr, ptr %3, align 8
  %18 = getelementptr inbounds %struct.Vec_Ptr_t_, ptr %17, i32 0, i32 0
  %19 = load i32, ptr %18, align 8
  %20 = icmp ne i32 %19, 0
  br i1 %20, label %21, label %28

21:                                               ; preds = %11
  %22 = load ptr, ptr %3, align 8
  %23 = getelementptr inbounds %struct.Vec_Ptr_t_, ptr %22, i32 0, i32 0
  %24 = load i32, ptr %23, align 8
  %25 = sext i32 %24 to i64
  %26 = mul i64 8, %25
  %27 = call noalias ptr @malloc(i64 noundef %26) #10
  br label %29

28:                                               ; preds = %11
  br label %29

29:                                               ; preds = %28, %21
  %30 = phi ptr [ %27, %21 ], [ null, %28 ]
  %31 = load ptr, ptr %3, align 8
  %32 = getelementptr inbounds %struct.Vec_Ptr_t_, ptr %31, i32 0, i32 2
  store ptr %30, ptr %32, align 8
  %33 = load ptr, ptr %3, align 8
  ret ptr %33
}

; Function Attrs: nounwind uwtable
define void @Npn_ManWrite(ptr noundef %0, ptr noundef %1) #0 {
  %3 = alloca ptr, align 8
  %4 = alloca ptr, align 8
  %5 = alloca ptr, align 8
  %6 = alloca ptr, align 8
  %7 = alloca ptr, align 8
  %8 = alloca i32, align 4
  store ptr %0, ptr %3, align 8
  store ptr %1, ptr %4, align 8
  %9 = load ptr, ptr %4, align 8
  %10 = call noalias ptr @fopen(ptr noundef %9, ptr noundef @.str.5)
  store ptr %10, ptr %7, align 8
  %11 = load ptr, ptr %7, align 8
  %12 = icmp eq ptr %11, null
  br i1 %12, label %13, label %15

13:                                               ; preds = %2
  %14 = load ptr, ptr %4, align 8
  call void (i32, ptr, ...) @Abc_Print(i32 noundef -1, ptr noundef @.str.2, ptr noundef %14)
  br label %85

15:                                               ; preds = %2
  %16 = load ptr, ptr %3, align 8
  %17 = getelementptr inbounds %struct.Npn_Man_t_, ptr %16, i32 0, i32 4
  %18 = load i32, ptr %17, align 8
  %19 = call ptr @Vec_PtrAlloc(i32 noundef %18)
  store ptr %19, ptr %5, align 8
  store i32 0, ptr %8, align 4
  br label %20

20:                                               ; preds = %49, %15
  %21 = load i32, ptr %8, align 4
  %22 = load ptr, ptr %3, align 8
  %23 = getelementptr inbounds %struct.Npn_Man_t_, ptr %22, i32 0, i32 2
  %24 = load i32, ptr %23, align 8
  %25 = icmp slt i32 %21, %24
  br i1 %25, label %26, label %52

26:                                               ; preds = %20
  %27 = load ptr, ptr %3, align 8
  %28 = load ptr, ptr %3, align 8
  %29 = getelementptr inbounds %struct.Npn_Man_t_, ptr %28, i32 0, i32 1
  %30 = load ptr, ptr %29, align 8
  %31 = load i32, ptr %8, align 4
  %32 = sext i32 %31 to i64
  %33 = getelementptr inbounds i32, ptr %30, i64 %32
  %34 = load i32, ptr %33, align 4
  %35 = call ptr @Npn_ManObj(ptr noundef %27, i32 noundef %34)
  store ptr %35, ptr %6, align 8
  br label %36

36:                                               ; preds = %42, %26
  %37 = load ptr, ptr %6, align 8
  %38 = icmp ne ptr %37, null
  br i1 %38, label %39, label %48

39:                                               ; preds = %36
  %40 = load ptr, ptr %5, align 8
  %41 = load ptr, ptr %6, align 8
  call void @Vec_PtrPush(ptr noundef %40, ptr noundef %41)
  br label %42

42:                                               ; preds = %39
  %43 = load ptr, ptr %3, align 8
  %44 = load ptr, ptr %6, align 8
  %45 = getelementptr inbounds %struct.Npn_Obj_t_, ptr %44, i32 0, i32 2
  %46 = load i32, ptr %45, align 4
  %47 = call ptr @Npn_ManObj(ptr noundef %43, i32 noundef %46)
  store ptr %47, ptr %6, align 8
  br label %36, !llvm.loop !12

48:                                               ; preds = %36
  br label %49

49:                                               ; preds = %48
  %50 = load i32, ptr %8, align 4
  %51 = add nsw i32 %50, 1
  store i32 %51, ptr %8, align 4
  br label %20, !llvm.loop !13

52:                                               ; preds = %20
  %53 = load ptr, ptr %5, align 8
  call void @Vec_PtrSort(ptr noundef %53, ptr noundef @Npn_ManCompareEntries)
  store i32 0, ptr %8, align 4
  br label %54

54:                                               ; preds = %78, %52
  %55 = load i32, ptr %8, align 4
  %56 = load ptr, ptr %5, align 8
  %57 = call i32 @Vec_PtrSize(ptr noundef %56)
  %58 = icmp slt i32 %55, %57
  br i1 %58, label %59, label %63

59:                                               ; preds = %54
  %60 = load ptr, ptr %5, align 8
  %61 = load i32, ptr %8, align 4
  %62 = call ptr @Vec_PtrEntry(ptr noundef %60, i32 noundef %61)
  store ptr %62, ptr %6, align 8
  br label %63

63:                                               ; preds = %59, %54
  %64 = phi i1 [ false, %54 ], [ true, %59 ]
  br i1 %64, label %65, label %81

65:                                               ; preds = %63
  %66 = load ptr, ptr %7, align 8
  %67 = load ptr, ptr %6, align 8
  %68 = getelementptr inbounds %struct.Npn_Obj_t_, ptr %67, i32 0, i32 0
  call void @Extra_PrintHexadecimal(ptr noundef %66, ptr noundef %68, i32 noundef 6)
  %69 = load ptr, ptr %7, align 8
  %70 = load ptr, ptr %6, align 8
  %71 = getelementptr inbounds %struct.Npn_Obj_t_, ptr %70, i32 0, i32 1
  %72 = load i32, ptr %71, align 8
  %73 = load ptr, ptr %6, align 8
  %74 = getelementptr inbounds %struct.Npn_Obj_t_, ptr %73, i32 0, i32 0
  %75 = load i64, ptr %74, align 8
  %76 = call i32 @Npn_TruthSuppSize(i64 noundef %75, i32 noundef 6)
  %77 = call i32 (ptr, ptr, ...) @fprintf(ptr noundef %69, ptr noundef @.str.6, i32 noundef %72, i32 noundef %76) #8
  br label %78

78:                                               ; preds = %65
  %79 = load i32, ptr %8, align 4
  %80 = add nsw i32 %79, 1
  store i32 %80, ptr %8, align 4
  br label %54, !llvm.loop !14

81:                                               ; preds = %63
  %82 = load ptr, ptr %7, align 8
  %83 = call i32 @fclose(ptr noundef %82)
  %84 = load ptr, ptr %5, align 8
  call void @Vec_PtrFree(ptr noundef %84)
  br label %85

85:                                               ; preds = %81, %13
  ret void
}