; Function Attrs: nounwind uwtable
define void @Npn_ManWrite(ptr noundef readonly captures(none) %0, ptr noundef %1) local_unnamed_addr #0 {
  %3 = tail call noalias ptr @fopen(ptr noundef %1, ptr noundef nonnull @.str.5)
  %4 = icmp eq ptr %3, null
  br i1 %4, label %5, label %6

5:                                                ; preds = %2
  tail call void (i32, ptr, ...) @Abc_Print(i32 noundef -1, ptr noundef nonnull @.str.2, ptr noundef %1)
  br label %88

6:                                                ; preds = %2
  %7 = getelementptr inbounds nuw i8, ptr %0, i64 24
  %8 = load i32, ptr %7, align 8
  %9 = tail call noalias dereferenceable_or_null(16) ptr @malloc(i64 noundef 16) #21
  %10 = add i32 %8, -1
  %or.cond.i = icmp ult i32 %10, 7
  %spec.store.select.i = select i1 %or.cond.i, i32 8, i32 %8
  %11 = getelementptr inbounds nuw i8, ptr %9, i64 4
  store i32 0, ptr %11, align 4
  store i32 %spec.store.select.i, ptr %9, align 8
  %.not.i = icmp eq i32 %spec.store.select.i, 0
  br i1 %.not.i, label %Vec_PtrAlloc.exit, label %12

12:                                               ; preds = %6
  %13 = sext i32 %spec.store.select.i to i64
  %14 = shl nsw i64 %13, 3
  %15 = tail call noalias ptr @malloc(i64 noundef %14) #21
  br label %Vec_PtrAlloc.exit

Vec_PtrAlloc.exit:                                ; preds = %6, %12
  %16 = phi ptr [ %15, %12 ], [ null, %6 ]
  %17 = getelementptr inbounds nuw i8, ptr %9, i64 8
  store ptr %16, ptr %17, align 8
  %18 = getelementptr inbounds nuw i8, ptr %0, i64 16
  %19 = load i32, ptr %18, align 8
  %20 = icmp sgt i32 %19, 0
  br i1 %20, label %.lr.ph37, label %.critedge

.lr.ph37:                                         ; preds = %Vec_PtrAlloc.exit
  %21 = getelementptr inbounds nuw i8, ptr %0, i64 8
  br label %22

22:                                               ; preds = %.lr.ph37, %._crit_edge
  %23 = phi i32 [ %19, %.lr.ph37 ], [ %59, %._crit_edge ]
  %indvars.iv = phi i64 [ 0, %.lr.ph37 ], [ %indvars.iv.next, %._crit_edge ]
  %24 = load ptr, ptr %21, align 8
  %25 = getelementptr inbounds nuw i32, ptr %24, i64 %indvars.iv
  %26 = load i32, ptr %25, align 4
  %.not.i30 = icmp eq i32 %26, 0
  br i1 %.not.i30, label %._crit_edge, label %.lr.ph

.lr.ph:                                           ; preds = %22, %Vec_PtrPush.exit
  %.sink50 = phi i32 [ %58, %Vec_PtrPush.exit ], [ %26, %22 ]
  %27 = load ptr, ptr %0, align 8
  %28 = sext i32 %.sink50 to i64
  %29 = getelementptr inbounds %struct.Npn_Obj_t_, ptr %27, i64 %28
  %30 = load i32, ptr %11, align 4
  %31 = load i32, ptr %9, align 8
  %32 = icmp eq i32 %30, %31
  br i1 %32, label %33, label %.Vec_PtrGrow.exit11_crit_edge.i

.Vec_PtrGrow.exit11_crit_edge.i:                  ; preds = %.lr.ph
  %.pre.i = load ptr, ptr %17, align 8
  br label %Vec_PtrPush.exit

33:                                               ; preds = %.lr.ph
  %34 = icmp slt i32 %30, 16
  br i1 %34, label %35, label %42

35:                                               ; preds = %33
  %36 = load ptr, ptr %17, align 8
  %.not9.i.i = icmp eq ptr %36, null
  br i1 %.not9.i.i, label %39, label %37

37:                                               ; preds = %35
  %38 = tail call dereferenceable_or_null(128) ptr @realloc(ptr noundef nonnull %36, i64 noundef 128) #24
  br label %Vec_PtrGrow.exit.i

39:                                               ; preds = %35
  %40 = tail call noalias dereferenceable_or_null(128) ptr @malloc(i64 noundef 128) #21
  br label %Vec_PtrGrow.exit.i

Vec_PtrGrow.exit.i:                               ; preds = %39, %37
  %41 = phi ptr [ %38, %37 ], [ %40, %39 ]
  store ptr %41, ptr %17, align 8
  store i32 16, ptr %9, align 8
  br label %Vec_PtrPush.exit

42:                                               ; preds = %33
  %43 = shl nuw nsw i32 %30, 1
  %44 = load ptr, ptr %17, align 8
  %.not9.i10.i = icmp eq ptr %44, null
  %45 = zext nneg i32 %43 to i64
  %46 = shl nuw nsw i64 %45, 3
  br i1 %.not9.i10.i, label %49, label %47

47:                                               ; preds = %42
  %48 = tail call ptr @realloc(ptr noundef nonnull %44, i64 noundef %46) #24
  br label %51

49:                                               ; preds = %42
  %50 = tail call noalias ptr @malloc(i64 noundef %46) #21
  br label %51

51:                                               ; preds = %49, %47
  %52 = phi ptr [ %48, %47 ], [ %50, %49 ]
  store ptr %52, ptr %17, align 8
  store i32 %43, ptr %9, align 8
  br label %Vec_PtrPush.exit

Vec_PtrPush.exit:                                 ; preds = %.Vec_PtrGrow.exit11_crit_edge.i, %Vec_PtrGrow.exit.i, %51
  %53 = phi ptr [ %.pre.i, %.Vec_PtrGrow.exit11_crit_edge.i ], [ %52, %51 ], [ %41, %Vec_PtrGrow.exit.i ]
  %54 = add nsw i32 %30, 1
  store i32 %54, ptr %11, align 4
  %55 = sext i32 %30 to i64
  %56 = getelementptr inbounds ptr, ptr %53, i64 %55
  store ptr %29, ptr %56, align 8
  %57 = getelementptr inbounds nuw i8, ptr %29, i64 12
  %58 = load i32, ptr %57, align 4
  %.not.i31 = icmp eq i32 %58, 0
  br i1 %.not.i31, label %._crit_edge.loopexit, label %.lr.ph, !llvm.loop !12

._crit_edge.loopexit:                             ; preds = %Vec_PtrPush.exit
  %.pre = load i32, ptr %18, align 8
  br label %._crit_edge

._crit_edge:                                      ; preds = %22, %._crit_edge.loopexit
  %59 = phi i32 [ %.pre, %._crit_edge.loopexit ], [ %23, %22 ]
  %indvars.iv.next = add nuw nsw i64 %indvars.iv, 1
  %60 = sext i32 %59 to i64
  %61 = icmp slt i64 %indvars.iv.next, %60
  br i1 %61, label %22, label %._crit_edge38, !llvm.loop !13

._crit_edge38:                                    ; preds = %._crit_edge
  %.pre45 = load i32, ptr %11, align 4
  %62 = icmp slt i32 %.pre45, 2
  br i1 %62, label %Vec_PtrSort.exit, label %Vec_PtrSort.exit.thread

Vec_PtrSort.exit.thread:                          ; preds = %._crit_edge38
  %63 = load ptr, ptr %17, align 8
  %64 = zext nneg i32 %.pre45 to i64
  tail call void @qsort(ptr noundef %63, i64 noundef %64, i64 noundef 8, ptr noundef nonnull @Npn_ManCompareEntries) #22
  %65 = zext nneg i32 %.pre45 to i64
  br label %.lr.ph40

Vec_PtrSort.exit:                                 ; preds = %._crit_edge38
  %66 = icmp eq i32 %.pre45, 1
  br i1 %66, label %.lr.ph40, label %.critedge

.lr.ph40:                                         ; preds = %Vec_PtrSort.exit.thread, %Vec_PtrSort.exit
  %wide.trip.count = phi i64 [ %65, %Vec_PtrSort.exit.thread ], [ 1, %Vec_PtrSort.exit ]
  %.val29 = load ptr, ptr %17, align 8
  br label %67

67:                                               ; preds = %.lr.ph40, %Npn_TruthSuppSize.exit
  %indvars.iv42 = phi i64 [ 0, %.lr.ph40 ], [ %indvars.iv.next43, %Npn_TruthSuppSize.exit ]
  %68 = getelementptr inbounds nuw ptr, ptr %.val29, i64 %indvars.iv42
  %69 = load ptr, ptr %68, align 8
  tail call void @Extra_PrintHexadecimal(ptr noundef nonnull %3, ptr noundef %69, i32 noundef 6) #22
  %70 = getelementptr inbounds nuw i8, ptr %69, i64 8
  %71 = load i32, ptr %70, align 8
  %72 = load i64, ptr %69, align 8
  br label %73

73:                                               ; preds = %73, %67
  %indvars.iv.i = phi i64 [ 0, %67 ], [ %indvars.iv.next.i, %73 ]
  %.010.i = phi i32 [ 0, %67 ], [ %spec.select.i, %73 ]
  %74 = getelementptr inbounds nuw [8 x i64], ptr @Truth, i64 0, i64 %indvars.iv.i
  %75 = load i64, ptr %74, align 8
  %76 = and i64 %75, %72
  %77 = trunc nuw nsw i64 %indvars.iv.i to i32
  %78 = shl nuw nsw i32 1, %77
  %79 = zext nneg i32 %78 to i64
  %80 = lshr i64 %76, %79
  %81 = xor i64 %75, -1
  %82 = and i64 %72, %81
  %.not8.i = icmp ne i64 %80, %82
  %83 = zext i1 %.not8.i to i32
  %spec.select.i = add nuw nsw i32 %.010.i, %83
  %indvars.iv.next.i = add nuw nsw i64 %indvars.iv.i, 1
  %exitcond.not.i = icmp eq i64 %indvars.iv.next.i, 6
  br i1 %exitcond.not.i, label %Npn_TruthSuppSize.exit, label %73, !llvm.loop !14

Npn_TruthSuppSize.exit:                           ; preds = %73
  %84 = tail call i32 (ptr, ptr, ...) @fprintf(ptr noundef nonnull %3, ptr noundef nonnull @.str.6, i32 noundef %71, i32 noundef %spec.select.i) #22
  %indvars.iv.next43 = add nuw nsw i64 %indvars.iv42, 1
  %exitcond.not = icmp eq i64 %indvars.iv.next43, %wide.trip.count
  br i1 %exitcond.not, label %.critedge, label %67, !llvm.loop !15

.critedge:                                        ; preds = %Npn_TruthSuppSize.exit, %Vec_PtrAlloc.exit, %Vec_PtrSort.exit
  %85 = tail call i32 @fclose(ptr noundef nonnull %3)
  %86 = load ptr, ptr %17, align 8
  %.not.i33 = icmp eq ptr %86, null
  br i1 %.not.i33, label %Vec_PtrFree.exit, label %87

87:                                               ; preds = %.critedge
  tail call void @free(ptr noundef nonnull %86) #22
  br label %Vec_PtrFree.exit

Vec_PtrFree.exit:                                 ; preds = %.critedge, %87
  tail call void @free(ptr noundef nonnull %9) #22
  br label %88

88:                                               ; preds = %Vec_PtrFree.exit, %5
  ret void
}